(dp0
Vengine
p1
Vlualatex
p2
sVpackages
p3
c__builtin__
set
p4
((lp5
Vhyperref
p6
aVxcolor
p7
aVtitlesec
p8
aVgeometry
p9
aVfontspec
p10
aVlistings
p11
aVpdfpages
p12
aVtextcase
p13
aVembrac
p14
aVmicrotype
p15
aVxltxtra
p16
aVccicons
p17
atp18
Rp19
sVfiles_with_guttermarks
p20
g4
((lp21
V/Users/thomasgriffiths/Documents/Side projects/uowthesistitlepage/documentation/uowthesistitlepage_doc.tex
p22
aS'uowthesistitlepage_doc.tex'
p23
aV/Users/thomasgriffiths/Documents/Side projects/uowthesistitlepage/documentation/./uowthesistitlepage_doc.tex
p24
atp25
Rp26
sVsynctex
p27
I01
s.