(dp0
Vengine
p1
Vlualatex
p2
sVpackages
p3
c__builtin__
set
p4
((lp5
Vhyperref
p6
aVxcolor
p7
aVtitlesec
p8
aVgeometry
p9
aVfontspec
p10
aVlistings
p11
aVpdfpages
p12
aVembrac
p13
aVmicrotype
p14
aVxltxtra
p15
aVccicons
p16
atp17
Rp18
sVfiles_with_guttermarks
p19
g4
((lp20
V/Users/thomasgriffiths/Documents/Side projects/uowthesistitlepage/documentation/uowthesistitlepage_doc.tex
p21
aS'uowthesistitlepage_doc.tex'
p22
aV/Users/thomasgriffiths/Documents/Side projects/uowthesistitlepage/documentation/./uowthesistitlepage_doc.tex
p23
atp24
Rp25
sVsynctex
p26
I01
s.